target datalayout = "e-m:e-p270:32:32-p271:32:32-p272:64:64-i64:64-i128:128-f80:128-n8:16:32:64-S128"
target triple = "x86_64-pc-linux-gnu"

@hf_link_type = internal global i32 0, align 4
@hf_link_subtype_eth = internal global i32 0, align 4
@hf_link_subtype_wireless_other = internal global i32 0, align 4
@hf_link_subtype_ieee80211 = internal global i32 0, align 4
@hf_link_subtype_umts = internal global i32 0, align 4
@hf_link_subtype_cdma2000 = internal global i32 0, align 4
@hf_link_subtype_ieee80216 = internal global i32 0, align 4
@hf_link_type_ext = internal global i32 0, align 4
@ett_subtype_eth_bitmap = internal global i32 0, align 4
@ett_subtype_wireless_other_bitmap = internal global i32 0, align 4
@ett_subtype_ieee80211_bitmap = internal global i32 0, align 4
@ett_subtype_umts_bitmap = internal global i32 0, align 4
@ett_subtype_cdma2000_bitmap = internal global i32 0, align 4
@ett_subtype_ieee80216_bitmap = internal global i32 0, align 4
@subtype_eth_fields = internal constant [4 x ptr] [ptr @hf_link_subtype_eth_10m, ptr @hf_link_subtype_eth_100m, ptr @hf_link_subtype_eth_1000m, ptr null], align 16
@subtype_wireless_other_fields = internal constant [4 x ptr] [ptr @hf_link_subtype_wireless_other_dvb, ptr @hf_link_subtype_wireless_other_tdmb, ptr @hf_link_subtype_wireless_other_atsc, ptr null], align 16
@subtype_ieee80211_fields = internal constant [6 x ptr] [ptr @hf_link_subtype_ieee80211_24, ptr @hf_link_subtype_ieee80211_5, ptr @hf_link_subtype_ieee80211_49, ptr @hf_link_subtype_ieee80211_365, ptr @hf_link_subtype_ieee80211_316, ptr null], align 16
@subtype_umts_fields = internal constant [7 x ptr] [ptr @hf_link_subtype_umts_99, ptr @hf_link_subtype_umts_4, ptr @hf_link_subtype_umts_5, ptr @hf_link_subtype_umts_6, ptr @hf_link_subtype_umts_7, ptr @hf_link_subtype_umts_8, ptr null], align 16
@subtype_cdma2000_fields = internal constant [5 x ptr] [ptr @hf_link_subtype_cdma2000_0, ptr @hf_link_subtype_cdma2000_a, ptr @hf_link_subtype_cdma2000_b, ptr @hf_link_subtype_cdma2000_c, ptr null], align 16
@subtype_ieee80216_fields = internal constant [3 x ptr] [ptr @hf_link_subtype_ieee80216_25, ptr @hf_link_subtype_ieee80216_35, ptr null], align 16
@.str.642 = private unnamed_addr constant [4 x i8] c"N/A\00", align 1

; Function Attrs: null_pointer_is_valid sspstrong uwtable
define internal signext i16 @dissect_net_type(ptr noundef %0, i16 noundef signext %1, ptr noundef %2) #0 {
  %4 = alloca ptr, align 8
  %5 = alloca i16, align 2
  %6 = alloca ptr, align 8
  %7 = alloca i8, align 1
  %8 = alloca i8, align 1
  store ptr %0, ptr %4, align 8
  store i16 %1, ptr %5, align 2
  store ptr %2, ptr %6, align 8
  call void @llvm.lifetime.start.p0(i64 1, ptr %7) #5
  store i8 0, ptr %7, align 1
  call void @llvm.lifetime.start.p0(i64 1, ptr %8) #5
  store i8 0, ptr %8, align 1
  %9 = load ptr, ptr %4, align 8
  %10 = load i16, ptr %5, align 2
  %11 = sext i16 %10 to i32
  %12 = call zeroext i8 @tvb_get_uint8(ptr noundef %9, i32 noundef %11)
  %13 = icmp ne i8 %12, 0
  br i1 %13, label %31, label %14

14:                                               ; preds = %3
  %15 = load ptr, ptr %4, align 8
  %16 = load i16, ptr %5, align 2
  %17 = sext i16 %16 to i32
  %18 = add i32 %17, 1
  %19 = call zeroext i8 @tvb_get_uint8(ptr noundef %15, i32 noundef %18)
  store i8 %19, ptr %8, align 1
  %20 = load ptr, ptr %6, align 8
  %21 = load i32, ptr @hf_link_type, align 4
  %22 = load ptr, ptr %4, align 8
  %23 = load i16, ptr %5, align 2
  %24 = sext i16 %23 to i32
  %25 = add i32 %24, 1
  %26 = call ptr @proto_tree_add_item(ptr noundef %20, i32 noundef %21, ptr noundef %22, i32 noundef %25, i32 noundef 1, i32 noundef 0)
  %27 = load i16, ptr %5, align 2
  %28 = sext i16 %27 to i32
  %29 = add i32 %28, 1
  %30 = trunc i32 %29 to i16
  store i16 %30, ptr %5, align 2
  br label %31

31:                                               ; preds = %14, %3
  %32 = load i16, ptr %5, align 2
  %33 = sext i16 %32 to i32
  %34 = add i32 %33, 1
  %35 = trunc i32 %34 to i16
  store i16 %35, ptr %5, align 2
  %36 = load ptr, ptr %4, align 8
  %37 = load i16, ptr %5, align 2
  %38 = sext i16 %37 to i32
  %39 = call zeroext i8 @tvb_get_uint8(ptr noundef %36, i32 noundef %38)
  %40 = icmp ne i8 %39, 0
  br i1 %40, label %105, label %41

41:                                               ; preds = %31
  %42 = load i8, ptr %8, align 1
  %43 = zext i8 %42 to i32
  switch i32 %43, label %98 [
    i32 15, label %44
    i32 18, label %53
    i32 19, label %62
    i32 23, label %71
    i32 24, label %80
    i32 27, label %89
  ]

44:                                               ; preds = %41
  %45 = load ptr, ptr %6, align 8
  %46 = load ptr, ptr %4, align 8
  %47 = load i16, ptr %5, align 2
  %48 = sext i16 %47 to i32
  %49 = add i32 %48, 1
  %50 = load i32, ptr @hf_link_subtype_eth, align 4
  %51 = load i32, ptr @ett_subtype_eth_bitmap, align 4
  %52 = call ptr @proto_tree_add_bitmask(ptr noundef %45, ptr noundef %46, i32 noundef %49, i32 noundef %50, i32 noundef %51, ptr noundef @subtype_eth_fields, i32 noundef 0)
  br label %100

53:                                               ; preds = %41
  %54 = load ptr, ptr %6, align 8
  %55 = load ptr, ptr %4, align 8
  %56 = load i16, ptr %5, align 2
  %57 = sext i16 %56 to i32
  %58 = add i32 %57, 1
  %59 = load i32, ptr @hf_link_subtype_wireless_other, align 4
  %60 = load i32, ptr @ett_subtype_wireless_other_bitmap, align 4
  %61 = call ptr @proto_tree_add_bitmask(ptr noundef %54, ptr noundef %55, i32 noundef %58, i32 noundef %59, i32 noundef %60, ptr noundef @subtype_wireless_other_fields, i32 noundef 0)
  br label %100

62:                                               ; preds = %41
  %63 = load ptr, ptr %6, align 8
  %64 = load ptr, ptr %4, align 8
  %65 = load i16, ptr %5, align 2
  %66 = sext i16 %65 to i32
  %67 = add i32 %66, 1
  %68 = load i32, ptr @hf_link_subtype_ieee80211, align 4
  %69 = load i32, ptr @ett_subtype_ieee80211_bitmap, align 4
  %70 = call ptr @proto_tree_add_bitmask(ptr noundef %63, ptr noundef %64, i32 noundef %67, i32 noundef %68, i32 noundef %69, ptr noundef @subtype_ieee80211_fields, i32 noundef 0)
  br label %100

71:                                               ; preds = %41
  %72 = load ptr, ptr %6, align 8
  %73 = load ptr, ptr %4, align 8
  %74 = load i16, ptr %5, align 2
  %75 = sext i16 %74 to i32
  %76 = add i32 %75, 1
  %77 = load i32, ptr @hf_link_subtype_umts, align 4
  %78 = load i32, ptr @ett_subtype_umts_bitmap, align 4
  %79 = call ptr @proto_tree_add_bitmask(ptr noundef %72, ptr noundef %73, i32 noundef %76, i32 noundef %77, i32 noundef %78, ptr noundef @subtype_umts_fields, i32 noundef 0)
  br label %100

80:                                               ; preds = %41
  %81 = load ptr, ptr %6, align 8
  %82 = load ptr, ptr %4, align 8
  %83 = load i16, ptr %5, align 2
  %84 = sext i16 %83 to i32
  %85 = add i32 %84, 1
  %86 = load i32, ptr @hf_link_subtype_cdma2000, align 4
  %87 = load i32, ptr @ett_subtype_cdma2000_bitmap, align 4
  %88 = call ptr @proto_tree_add_bitmask(ptr noundef %81, ptr noundef %82, i32 noundef %85, i32 noundef %86, i32 noundef %87, ptr noundef @subtype_cdma2000_fields, i32 noundef 0)
  br label %100

89:                                               ; preds = %41
  %90 = load ptr, ptr %6, align 8
  %91 = load ptr, ptr %4, align 8
  %92 = load i16, ptr %5, align 2
  %93 = sext i16 %92 to i32
  %94 = add i32 %93, 1
  %95 = load i32, ptr @hf_link_subtype_ieee80216, align 4
  %96 = load i32, ptr @ett_subtype_ieee80216_bitmap, align 4
  %97 = call ptr @proto_tree_add_bitmask(ptr noundef %90, ptr noundef %91, i32 noundef %94, i32 noundef %95, i32 noundef %96, ptr noundef @subtype_ieee80216_fields, i32 noundef 0)
  br label %100

98:                                               ; preds = %41
  %99 = load ptr, ptr %6, align 8
  call void (ptr, ptr, ...) @proto_item_append_text(ptr noundef %99, ptr noundef @.str.642)
  br label %100

100:                                              ; preds = %98, %89, %80, %71, %62, %53, %44
  %101 = load i16, ptr %5, align 2
  %102 = sext i16 %101 to i32
  %103 = add i32 %102, 8
  %104 = trunc i32 %103 to i16
  store i16 %104, ptr %5, align 2
  br label %105

105:                                              ; preds = %100, %31
  %106 = load i16, ptr %5, align 2
  %107 = sext i16 %106 to i32
  %108 = add i32 %107, 1
  %109 = trunc i32 %108 to i16
  store i16 %109, ptr %5, align 2
  %110 = load ptr, ptr %4, align 8
  %111 = load i16, ptr %5, align 2
  %112 = sext i16 %111 to i32
  %113 = call zeroext i8 @tvb_get_uint8(ptr noundef %110, i32 noundef %112)
  %114 = icmp ne i8 %113, 0
  br i1 %114, label %137, label %115

115:                                              ; preds = %105
  %116 = load ptr, ptr %4, align 8
  %117 = load i16, ptr %5, align 2
  %118 = sext i16 %117 to i32
  %119 = add i32 %118, 1
  %120 = call zeroext i8 @tvb_get_uint8(ptr noundef %116, i32 noundef %119)
  store i8 %120, ptr %7, align 1
  %121 = load ptr, ptr %6, align 8
  %122 = load i32, ptr @hf_link_type_ext, align 4
  %123 = load ptr, ptr %4, align 8
  %124 = load i16, ptr %5, align 2
  %125 = sext i16 %124 to i32
  %126 = add i32 %125, 2
  %127 = load i8, ptr %7, align 1
  %128 = zext i8 %127 to i32
  %129 = call ptr @proto_tree_add_item(ptr noundef %121, i32 noundef %122, ptr noundef %123, i32 noundef %126, i32 noundef %128, i32 noundef 0)
  %130 = load i8, ptr %7, align 1
  %131 = zext i8 %130 to i32
  %132 = add i32 %131, 2
  %133 = load i16, ptr %5, align 2
  %134 = sext i16 %133 to i32
  %135 = add i32 %134, %132
  %136 = trunc i32 %135 to i16
  store i16 %136, ptr %5, align 2
  br label %137

137:                                              ; preds = %115, %105
  %138 = load i16, ptr %5, align 2
  call void @llvm.lifetime.end.p0(i64 1, ptr %8) #5
  call void @llvm.lifetime.end.p0(i64 1, ptr %7) #5
  ret i16 %138
}