; Function Attrs: null_pointer_is_valid sspstrong uwtable
define internal fastcc signext i16 @dissect_net_type(ptr noundef %0, i16 noundef signext %1, ptr noundef %2) unnamed_addr #0 {
  %4 = sext i16 %1 to i32
  %5 = tail call zeroext i8 @tvb_get_uint8(ptr noundef %0, i32 noundef %4)
  %.not = icmp eq i8 %5, 0
  br i1 %.not, label %6, label %12

6:                                                ; preds = %3
  %7 = add nsw i32 %4, 1
  %8 = tail call zeroext i8 @tvb_get_uint8(ptr noundef %0, i32 noundef %7)
  %9 = load i32, ptr @hf_link_type, align 4
  %10 = tail call ptr @proto_tree_add_item(ptr noundef %2, i32 noundef %9, ptr noundef %0, i32 noundef %7, i32 noundef 1, i32 noundef 0)
  %11 = trunc i32 %7 to i16
  br label %12

12:                                               ; preds = %6, %3
  %.043 = phi i16 [ %1, %3 ], [ %11, %6 ]
  %.0 = phi i8 [ 0, %3 ], [ %8, %6 ]
  %13 = add i16 %.043, 1
  %14 = sext i16 %13 to i32
  %15 = tail call zeroext i8 @tvb_get_uint8(ptr noundef %0, i32 noundef %14)
  %.not44 = icmp eq i8 %15, 0
  br i1 %.not44, label %16, label %50

16:                                               ; preds = %12
  switch i8 %.0, label %47 [
    i8 15, label %17
    i8 18, label %22
    i8 19, label %27
    i8 23, label %32
    i8 24, label %37
    i8 27, label %42
  ]

17:                                               ; preds = %16
  %18 = add nsw i32 %14, 1
  %19 = load i32, ptr @hf_link_subtype_eth, align 4
  %20 = load i32, ptr @ett_subtype_eth_bitmap, align 4
  %21 = tail call ptr @proto_tree_add_bitmask(ptr noundef %2, ptr noundef %0, i32 noundef %18, i32 noundef %19, i32 noundef %20, ptr noundef nonnull @subtype_eth_fields, i32 noundef 0)
  br label %48

22:                                               ; preds = %16
  %23 = add nsw i32 %14, 1
  %24 = load i32, ptr @hf_link_subtype_wireless_other, align 4
  %25 = load i32, ptr @ett_subtype_wireless_other_bitmap, align 4
  %26 = tail call ptr @proto_tree_add_bitmask(ptr noundef %2, ptr noundef %0, i32 noundef %23, i32 noundef %24, i32 noundef %25, ptr noundef nonnull @subtype_wireless_other_fields, i32 noundef 0)
  br label %48

27:                                               ; preds = %16
  %28 = add nsw i32 %14, 1
  %29 = load i32, ptr @hf_link_subtype_ieee80211, align 4
  %30 = load i32, ptr @ett_subtype_ieee80211_bitmap, align 4
  %31 = tail call ptr @proto_tree_add_bitmask(ptr noundef %2, ptr noundef %0, i32 noundef %28, i32 noundef %29, i32 noundef %30, ptr noundef nonnull @subtype_ieee80211_fields, i32 noundef 0)
  br label %48

32:                                               ; preds = %16
  %33 = add nsw i32 %14, 1
  %34 = load i32, ptr @hf_link_subtype_umts, align 4
  %35 = load i32, ptr @ett_subtype_umts_bitmap, align 4
  %36 = tail call ptr @proto_tree_add_bitmask(ptr noundef %2, ptr noundef %0, i32 noundef %33, i32 noundef %34, i32 noundef %35, ptr noundef nonnull @subtype_umts_fields, i32 noundef 0)
  br label %48

37:                                               ; preds = %16
  %38 = add nsw i32 %14, 1
  %39 = load i32, ptr @hf_link_subtype_cdma2000, align 4
  %40 = load i32, ptr @ett_subtype_cdma2000_bitmap, align 4
  %41 = tail call ptr @proto_tree_add_bitmask(ptr noundef %2, ptr noundef %0, i32 noundef %38, i32 noundef %39, i32 noundef %40, ptr noundef nonnull @subtype_cdma2000_fields, i32 noundef 0)
  br label %48

42:                                               ; preds = %16
  %43 = add nsw i32 %14, 1
  %44 = load i32, ptr @hf_link_subtype_ieee80216, align 4
  %45 = load i32, ptr @ett_subtype_ieee80216_bitmap, align 4
  %46 = tail call ptr @proto_tree_add_bitmask(ptr noundef %2, ptr noundef %0, i32 noundef %43, i32 noundef %44, i32 noundef %45, ptr noundef nonnull @subtype_ieee80216_fields, i32 noundef 0)
  br label %48

47:                                               ; preds = %16
  tail call void (ptr, ptr, ...) @proto_item_append_text(ptr noundef %2, ptr noundef nonnull @.str.642)
  br label %48

48:                                               ; preds = %47, %42, %37, %32, %27, %22, %17
  %49 = add i16 %.043, 9
  br label %50

50:                                               ; preds = %48, %12
  %.1 = phi i16 [ %13, %12 ], [ %49, %48 ]
  %51 = add i16 %.1, 1
  %52 = sext i16 %51 to i32
  %53 = tail call zeroext i8 @tvb_get_uint8(ptr noundef %0, i32 noundef %52)
  %.not45 = icmp eq i8 %53, 0
  br i1 %.not45, label %54, label %64

54:                                               ; preds = %50
  %55 = add nsw i32 %52, 1
  %56 = tail call zeroext i8 @tvb_get_uint8(ptr noundef %0, i32 noundef %55)
  %57 = load i32, ptr @hf_link_type_ext, align 4
  %58 = add nsw i32 %52, 2
  %59 = zext i8 %56 to i32
  %60 = tail call ptr @proto_tree_add_item(ptr noundef %2, i32 noundef %57, ptr noundef %0, i32 noundef %58, i32 noundef %59, i32 noundef 0)
  %61 = zext i8 %56 to i16
  %62 = add i16 %.1, 3
  %63 = add i16 %62, %61
  br label %64

64:                                               ; preds = %54, %50
  %.2 = phi i16 [ %51, %50 ], [ %63, %54 ]
  ret i16 %.2
}